target datalayout = "e-m:e-p270:32:32-p271:32:32-p272:64:64-i64:64-i128:128-f80:128-n8:16:32:64-S128"
target triple = "x86_64-pc-linux-gnu"

%"struct.icu_77::FormattedStringBuilder::Field" = type { i8 }
%"class.icu_77::FormattedStringBuilder" = type { i8, %"union.icu_77::FormattedStringBuilder::ValueOrHeapArray", %"union.icu_77::FormattedStringBuilder::ValueOrHeapArray.0", i32, i32 }
%"union.icu_77::FormattedStringBuilder::ValueOrHeapArray" = type { %struct.anon, [64 x i8] }
%struct.anon = type { ptr, i32 }
%"union.icu_77::FormattedStringBuilder::ValueOrHeapArray.0" = type { %struct.anon.1, [24 x i8] }
%struct.anon.1 = type { ptr, i32 }

; Function Attrs: inlinehint mustprogress nounwind uwtable
define linkonce_odr noundef i32 @_ZNK6icu_7722FormattedStringBuilder11getCapacityEv(ptr noundef nonnull align 8 dereferenceable(136) %0) #5 comdat align 2 {
  %2 = alloca ptr, align 8
  store ptr %0, ptr %2, align 8, !tbaa !3
  %3 = load ptr, ptr %2, align 8
  %4 = getelementptr inbounds nuw %"class.icu_77::FormattedStringBuilder", ptr %3, i32 0, i32 0
  %5 = load i8, ptr %4, align 8, !tbaa !8, !range !14, !noundef !15
  %6 = trunc i8 %5 to i1
  br i1 %6, label %7, label %11

7:                                                ; preds = %1
  %8 = getelementptr inbounds nuw %"class.icu_77::FormattedStringBuilder", ptr %3, i32 0, i32 1
  %9 = getelementptr inbounds nuw %struct.anon, ptr %8, i32 0, i32 1
  %10 = load i32, ptr %9, align 8, !tbaa !16
  br label %12

11:                                               ; preds = %1
  br label %12

12:                                               ; preds = %11, %7
  %13 = phi i32 [ %10, %7 ], [ 40, %11 ]
  ret i32 %13
}

; Function Attrs: inlinehint mustprogress nounwind uwtable
define linkonce_odr noundef ptr @_ZN6icu_7722FormattedStringBuilder11getFieldPtrEv(ptr noundef nonnull align 8 dereferenceable(136) %0) #5 comdat align 2 {
  %2 = alloca ptr, align 8
  store ptr %0, ptr %2, align 8, !tbaa !3
  %3 = load ptr, ptr %2, align 8
  %4 = getelementptr inbounds nuw %"class.icu_77::FormattedStringBuilder", ptr %3, i32 0, i32 0
  %5 = load i8, ptr %4, align 8, !tbaa !8, !range !14, !noundef !15
  %6 = trunc i8 %5 to i1
  br i1 %6, label %7, label %11

7:                                                ; preds = %1
  %8 = getelementptr inbounds nuw %"class.icu_77::FormattedStringBuilder", ptr %3, i32 0, i32 2
  %9 = getelementptr inbounds nuw %struct.anon.1, ptr %8, i32 0, i32 0
  %10 = load ptr, ptr %9, align 8, !tbaa !16
  br label %14

11:                                               ; preds = %1
  %12 = getelementptr inbounds nuw %"class.icu_77::FormattedStringBuilder", ptr %3, i32 0, i32 2
  %13 = getelementptr inbounds [40 x %"struct.icu_77::FormattedStringBuilder::Field"], ptr %12, i64 0, i64 0
  br label %14

14:                                               ; preds = %11, %7
  %15 = phi ptr [ %10, %7 ], [ %13, %11 ]
  ret ptr %15
}

; Function Attrs: inlinehint mustprogress nounwind uwtable
define linkonce_odr noundef ptr @_ZN6icu_7722FormattedStringBuilder10getCharPtrEv(ptr noundef nonnull align 8 dereferenceable(136) %0) #5 comdat align 2 {
  %2 = alloca ptr, align 8
  store ptr %0, ptr %2, align 8, !tbaa !3
  %3 = load ptr, ptr %2, align 8
  %4 = getelementptr inbounds nuw %"class.icu_77::FormattedStringBuilder", ptr %3, i32 0, i32 0
  %5 = load i8, ptr %4, align 8, !tbaa !8, !range !14, !noundef !15
  %6 = trunc i8 %5 to i1
  br i1 %6, label %7, label %11

7:                                                ; preds = %1
  %8 = getelementptr inbounds nuw %"class.icu_77::FormattedStringBuilder", ptr %3, i32 0, i32 1
  %9 = getelementptr inbounds nuw %struct.anon, ptr %8, i32 0, i32 0
  %10 = load ptr, ptr %9, align 8, !tbaa !16
  br label %14

11:                                               ; preds = %1
  %12 = getelementptr inbounds nuw %"class.icu_77::FormattedStringBuilder", ptr %3, i32 0, i32 1
  %13 = getelementptr inbounds [40 x i16], ptr %12, i64 0, i64 0
  br label %14

14:                                               ; preds = %11, %7
  %15 = phi ptr [ %10, %7 ], [ %13, %11 ]
  ret ptr %15
}

; Function Attrs: inlinehint mustprogress nounwind uwtable
define internal noundef signext i8 @_ZL9U_FAILURE10UErrorCode(i32 noundef %0) #5 {
  %2 = alloca i32, align 4
  store i32 %0, ptr %2, align 4, !tbaa !29
  %3 = load i32, ptr %2, align 4, !tbaa !29
  %4 = icmp sgt i32 %3, 0
  %5 = zext i1 %4 to i8
  ret i8 %5
}

; Function Attrs: mustprogress uwtable
define noundef i32 @_ZN6icu_7722FormattedStringBuilder16prepareForInsertEiiR10UErrorCode(ptr noundef nonnull align 8 dereferenceable(136) %0, i32 noundef %1, i32 noundef %2, ptr noundef nonnull align 4 dereferenceable(4) %3) #3 align 2 {
  %5 = alloca i32, align 4
  %6 = alloca ptr, align 8
  %7 = alloca i32, align 4
  %8 = alloca i32, align 4
  %9 = alloca ptr, align 8
  store ptr %0, ptr %6, align 8, !tbaa !3
  store i32 %1, ptr %7, align 4, !tbaa !17
  store i32 %2, ptr %8, align 4, !tbaa !17
  store ptr %3, ptr %9, align 8, !tbaa !22
  %10 = load ptr, ptr %6, align 8
  %11 = load ptr, ptr %9, align 8, !tbaa !22
  %12 = load i32, ptr %11, align 4, !tbaa !29
  %13 = call noundef signext i8 @_ZL9U_FAILURE10UErrorCode(i32 noundef %12)
  %14 = icmp ne i8 %13, 0
  br i1 %14, label %15, label %17

15:                                               ; preds = %4
  %16 = load i32, ptr %8, align 4, !tbaa !17
  store i32 %16, ptr %5, align 4
  br label %69

17:                                               ; preds = %4
  %18 = load i32, ptr %7, align 4, !tbaa !17
  %19 = icmp eq i32 %18, 0
  br i1 %19, label %20, label %37

20:                                               ; preds = %17
  %21 = getelementptr inbounds nuw %"class.icu_77::FormattedStringBuilder", ptr %10, i32 0, i32 3
  %22 = load i32, ptr %21, align 8, !tbaa !12
  %23 = load i32, ptr %8, align 4, !tbaa !17
  %24 = sub nsw i32 %22, %23
  %25 = icmp sge i32 %24, 0
  br i1 %25, label %26, label %37

26:                                               ; preds = %20
  %27 = load i32, ptr %8, align 4, !tbaa !17
  %28 = getelementptr inbounds nuw %"class.icu_77::FormattedStringBuilder", ptr %10, i32 0, i32 3
  %29 = load i32, ptr %28, align 8, !tbaa !12
  %30 = sub nsw i32 %29, %27
  store i32 %30, ptr %28, align 8, !tbaa !12
  %31 = load i32, ptr %8, align 4, !tbaa !17
  %32 = getelementptr inbounds nuw %"class.icu_77::FormattedStringBuilder", ptr %10, i32 0, i32 4
  %33 = load i32, ptr %32, align 4, !tbaa !13
  %34 = add nsw i32 %33, %31
  store i32 %34, ptr %32, align 4, !tbaa !13
  %35 = getelementptr inbounds nuw %"class.icu_77::FormattedStringBuilder", ptr %10, i32 0, i32 3
  %36 = load i32, ptr %35, align 8, !tbaa !12
  store i32 %36, ptr %5, align 4
  br label %69

37:                                               ; preds = %20, %17
  %38 = load i32, ptr %7, align 4, !tbaa !17
  %39 = getelementptr inbounds nuw %"class.icu_77::FormattedStringBuilder", ptr %10, i32 0, i32 4
  %40 = load i32, ptr %39, align 4, !tbaa !13
  %41 = icmp eq i32 %38, %40
  br i1 %41, label %42, label %64

42:                                               ; preds = %37
  %43 = load i32, ptr %8, align 4, !tbaa !17
  %44 = call noundef i32 @_ZNK6icu_7722FormattedStringBuilder11getCapacityEv(ptr noundef nonnull align 8 dereferenceable(136) %10)
  %45 = getelementptr inbounds nuw %"class.icu_77::FormattedStringBuilder", ptr %10, i32 0, i32 3
  %46 = load i32, ptr %45, align 8, !tbaa !12
  %47 = sub nsw i32 %44, %46
  %48 = getelementptr inbounds nuw %"class.icu_77::FormattedStringBuilder", ptr %10, i32 0, i32 4
  %49 = load i32, ptr %48, align 4, !tbaa !13
  %50 = sub nsw i32 %47, %49
  %51 = icmp sle i32 %43, %50
  br i1 %51, label %52, label %64

52:                                               ; preds = %42
  %53 = load i32, ptr %8, align 4, !tbaa !17
  %54 = getelementptr inbounds nuw %"class.icu_77::FormattedStringBuilder", ptr %10, i32 0, i32 4
  %55 = load i32, ptr %54, align 4, !tbaa !13
  %56 = add nsw i32 %55, %53
  store i32 %56, ptr %54, align 4, !tbaa !13
  %57 = getelementptr inbounds nuw %"class.icu_77::FormattedStringBuilder", ptr %10, i32 0, i32 3
  %58 = load i32, ptr %57, align 8, !tbaa !12
  %59 = getelementptr inbounds nuw %"class.icu_77::FormattedStringBuilder", ptr %10, i32 0, i32 4
  %60 = load i32, ptr %59, align 4, !tbaa !13
  %61 = add nsw i32 %58, %60
  %62 = load i32, ptr %8, align 4, !tbaa !17
  %63 = sub nsw i32 %61, %62
  store i32 %63, ptr %5, align 4
  br label %69

64:                                               ; preds = %42, %37
  %65 = load i32, ptr %7, align 4, !tbaa !17
  %66 = load i32, ptr %8, align 4, !tbaa !17
  %67 = load ptr, ptr %9, align 8, !tbaa !22
  %68 = call noundef i32 @_ZN6icu_7722FormattedStringBuilder22prepareForInsertHelperEiiR10UErrorCode(ptr noundef nonnull align 8 dereferenceable(136) %10, i32 noundef %65, i32 noundef %66, ptr noundef nonnull align 4 dereferenceable(4) %67)
  store i32 %68, ptr %5, align 4
  br label %69

69:                                               ; preds = %64, %52, %26, %15
  %70 = load i32, ptr %5, align 4
  ret i32 %70
}

; Function Attrs: mustprogress uwtable
define noundef i32 @_ZN6icu_7722FormattedStringBuilder15insertCodePointEiiNS0_5FieldER10UErrorCode(ptr noundef nonnull align 8 dereferenceable(136) %0, i32 noundef %1, i32 noundef %2, i8 %3, ptr noundef nonnull align 4 dereferenceable(4) %4) #3 align 2 {
  %6 = alloca i32, align 4
  %7 = alloca %"struct.icu_77::FormattedStringBuilder::Field", align 1
  %8 = alloca ptr, align 8
  %9 = alloca i32, align 4
  %10 = alloca i32, align 4
  %11 = alloca ptr, align 8
  %12 = alloca i32, align 4
  %13 = alloca i32, align 4
  %14 = alloca i32, align 4
  %15 = alloca ptr, align 8
  %16 = alloca ptr, align 8
  %17 = getelementptr inbounds nuw %"struct.icu_77::FormattedStringBuilder::Field", ptr %7, i32 0, i32 0
  store i8 %3, ptr %17, align 1
  store ptr %0, ptr %8, align 8, !tbaa !3
  store i32 %1, ptr %9, align 4, !tbaa !17
  store i32 %2, ptr %10, align 4, !tbaa !17
  store ptr %4, ptr %11, align 8, !tbaa !22
  %18 = load ptr, ptr %8, align 8
  call void @llvm.lifetime.start.p0(i64 4, ptr %12) #11
  %19 = load i32, ptr %10, align 4, !tbaa !17
  %20 = icmp ule i32 %19, 65535
  %21 = select i1 %20, i32 1, i32 2
  store i32 %21, ptr %12, align 4, !tbaa !17
  call void @llvm.lifetime.start.p0(i64 4, ptr %13) #11
  %22 = load i32, ptr %9, align 4, !tbaa !17
  %23 = load i32, ptr %12, align 4, !tbaa !17
  %24 = load ptr, ptr %11, align 8, !tbaa !22
  %25 = call noundef i32 @_ZN6icu_7722FormattedStringBuilder16prepareForInsertEiiR10UErrorCode(ptr noundef nonnull align 8 dereferenceable(136) %18, i32 noundef %22, i32 noundef %23, ptr noundef nonnull align 4 dereferenceable(4) %24)
  store i32 %25, ptr %13, align 4, !tbaa !17
  %26 = load ptr, ptr %11, align 8, !tbaa !22
  %27 = load i32, ptr %26, align 4, !tbaa !29
  %28 = call noundef signext i8 @_ZL9U_FAILURE10UErrorCode(i32 noundef %27)
  %29 = icmp ne i8 %28, 0
  br i1 %29, label %30, label %32

30:                                               ; preds = %5
  %31 = load i32, ptr %12, align 4, !tbaa !17
  store i32 %31, ptr %6, align 4
  store i32 1, ptr %14, align 4
  br label %77

32:                                               ; preds = %5
  call void @llvm.lifetime.start.p0(i64 8, ptr %15) #11
  %33 = call noundef ptr @_ZN6icu_7722FormattedStringBuilder10getCharPtrEv(ptr noundef nonnull align 8 dereferenceable(136) %18)
  store ptr %33, ptr %15, align 8, !tbaa !18
  call void @llvm.lifetime.start.p0(i64 8, ptr %16) #11
  %34 = call noundef ptr @_ZN6icu_7722FormattedStringBuilder11getFieldPtrEv(ptr noundef nonnull align 8 dereferenceable(136) %18)
  store ptr %34, ptr %16, align 8, !tbaa !20
  %35 = load i32, ptr %12, align 4, !tbaa !17
  %36 = icmp eq i32 %35, 1
  br i1 %36, label %37, label %48

37:                                               ; preds = %32
  %38 = load i32, ptr %10, align 4, !tbaa !17
  %39 = trunc i32 %38 to i16
  %40 = load ptr, ptr %15, align 8, !tbaa !18
  %41 = load i32, ptr %13, align 4, !tbaa !17
  %42 = sext i32 %41 to i64
  %43 = getelementptr inbounds i16, ptr %40, i64 %42
  store i16 %39, ptr %43, align 2, !tbaa !25
  %44 = load ptr, ptr %16, align 8, !tbaa !20
  %45 = load i32, ptr %13, align 4, !tbaa !17
  %46 = sext i32 %45 to i64
  %47 = getelementptr inbounds %"struct.icu_77::FormattedStringBuilder::Field", ptr %44, i64 %46
  call void @llvm.memcpy.p0.p0.i64(ptr align 1 %47, ptr align 1 %7, i64 1, i1 false), !tbaa.struct !31
  br label %75

48:                                               ; preds = %32
  %49 = load i32, ptr %10, align 4, !tbaa !17
  %50 = ashr i32 %49, 10
  %51 = add nsw i32 %50, 55232
  %52 = trunc i32 %51 to i16
  %53 = load ptr, ptr %15, align 8, !tbaa !18
  %54 = load i32, ptr %13, align 4, !tbaa !17
  %55 = sext i32 %54 to i64
  %56 = getelementptr inbounds i16, ptr %53, i64 %55
  store i16 %52, ptr %56, align 2, !tbaa !25
  %57 = load i32, ptr %10, align 4, !tbaa !17
  %58 = and i32 %57, 1023
  %59 = or i32 %58, 56320
  %60 = trunc i32 %59 to i16
  %61 = load ptr, ptr %15, align 8, !tbaa !18
  %62 = load i32, ptr %13, align 4, !tbaa !17
  %63 = add nsw i32 %62, 1
  %64 = sext i32 %63 to i64
  %65 = getelementptr inbounds i16, ptr %61, i64 %64
  store i16 %60, ptr %65, align 2, !tbaa !25
  %66 = load ptr, ptr %16, align 8, !tbaa !20
  %67 = load i32, ptr %13, align 4, !tbaa !17
  %68 = add nsw i32 %67, 1
  %69 = sext i32 %68 to i64
  %70 = getelementptr inbounds %"struct.icu_77::FormattedStringBuilder::Field", ptr %66, i64 %69
  call void @llvm.memcpy.p0.p0.i64(ptr align 1 %70, ptr align 1 %7, i64 1, i1 false), !tbaa.struct !31
  %71 = load ptr, ptr %16, align 8, !tbaa !20
  %72 = load i32, ptr %13, align 4, !tbaa !17
  %73 = sext i32 %72 to i64
  %74 = getelementptr inbounds %"struct.icu_77::FormattedStringBuilder::Field", ptr %71, i64 %73
  call void @llvm.memcpy.p0.p0.i64(ptr align 1 %74, ptr align 1 %70, i64 1, i1 false), !tbaa.struct !31
  br label %75

75:                                               ; preds = %48, %37
  %76 = load i32, ptr %12, align 4, !tbaa !17
  store i32 %76, ptr %6, align 4
  store i32 1, ptr %14, align 4
  call void @llvm.lifetime.end.p0(i64 8, ptr %16) #11
  call void @llvm.lifetime.end.p0(i64 8, ptr %15) #11
  br label %77

77:                                               ; preds = %75, %30
  call void @llvm.lifetime.end.p0(i64 4, ptr %13) #11
  call void @llvm.lifetime.end.p0(i64 4, ptr %12) #11
  %78 = load i32, ptr %6, align 4
  ret i32 %78
}