; Function Attrs: mustprogress uwtable
define noundef range(i32 1, 3) i32 @_ZN6icu_7722FormattedStringBuilder15insertCodePointEiiNS0_5FieldER10UErrorCode(ptr noundef nonnull align 8 dereferenceable(136) %0, i32 noundef %1, i32 noundef %2, i8 %3, ptr noundef nonnull align 4 captures(none) dereferenceable(4) %4) local_unnamed_addr #5 align 2 {
  %6 = icmp ult i32 %2, 65536
  %7 = select i1 %6, i32 1, i32 2
  %8 = load i32, ptr %4, align 4, !tbaa !16
  %9 = icmp slt i32 %8, 1
  br i1 %9, label %10, label %_ZN6icu_7722FormattedStringBuilder16prepareForInsertEiiR10UErrorCode.exit.thread27

10:                                               ; preds = %5
  %11 = icmp eq i32 %1, 0
  br i1 %11, label %12, label %21

12:                                               ; preds = %10
  %13 = getelementptr inbounds nuw i8, ptr %0, i64 128
  %14 = load i32, ptr %13, align 8, !tbaa !9
  %15 = sub nsw i32 %14, %7
  %16 = icmp sgt i32 %15, -1
  br i1 %16, label %17, label %21

17:                                               ; preds = %12
  store i32 %15, ptr %13, align 8, !tbaa !9
  %18 = getelementptr inbounds nuw i8, ptr %0, i64 132
  %19 = load i32, ptr %18, align 4, !tbaa !10
  %20 = add nsw i32 %19, %7
  store i32 %20, ptr %18, align 4, !tbaa !10
  br label %_ZN6icu_7722FormattedStringBuilder16prepareForInsertEiiR10UErrorCode.exit.thread

21:                                               ; preds = %12, %10
  %22 = getelementptr inbounds nuw i8, ptr %0, i64 132
  %23 = load i32, ptr %22, align 4, !tbaa !10
  %24 = icmp eq i32 %1, %23
  br i1 %24, label %25, label %_ZN6icu_7722FormattedStringBuilder16prepareForInsertEiiR10UErrorCode.exit

25:                                               ; preds = %21
  %26 = load i8, ptr %0, align 8, !tbaa !3, !range !11, !noundef !12
  %27 = trunc nuw i8 %26 to i1
  %28 = getelementptr inbounds nuw i8, ptr %0, i64 16
  %29 = load i32, ptr %28, align 8
  %30 = select i1 %27, i32 %29, i32 40
  %31 = getelementptr inbounds nuw i8, ptr %0, i64 128
  %32 = load i32, ptr %31, align 8, !tbaa !9
  %33 = add i32 %32, %1
  %34 = sub i32 %30, %33
  %.not16.i = icmp sgt i32 %7, %34
  br i1 %.not16.i, label %_ZN6icu_7722FormattedStringBuilder16prepareForInsertEiiR10UErrorCode.exit, label %35

35:                                               ; preds = %25
  %36 = add nsw i32 %7, %1
  store i32 %36, ptr %22, align 4, !tbaa !10
  br label %_ZN6icu_7722FormattedStringBuilder16prepareForInsertEiiR10UErrorCode.exit.thread

_ZN6icu_7722FormattedStringBuilder16prepareForInsertEiiR10UErrorCode.exit: ; preds = %21, %25
  %37 = tail call noundef i32 @_ZN6icu_7722FormattedStringBuilder22prepareForInsertHelperEiiR10UErrorCode(ptr noundef nonnull align 8 dereferenceable(136) %0, i32 noundef %1, i32 noundef %7, ptr noundef nonnull align 4 dereferenceable(4) %4)
  %.pre = load i32, ptr %4, align 4, !tbaa !16
  %38 = icmp slt i32 %.pre, 1
  br i1 %38, label %_ZN6icu_7722FormattedStringBuilder16prepareForInsertEiiR10UErrorCode.exit.thread, label %_ZN6icu_7722FormattedStringBuilder16prepareForInsertEiiR10UErrorCode.exit.thread27

_ZN6icu_7722FormattedStringBuilder16prepareForInsertEiiR10UErrorCode.exit.thread: ; preds = %35, %17, %_ZN6icu_7722FormattedStringBuilder16prepareForInsertEiiR10UErrorCode.exit
  %.0.i26 = phi i32 [ %37, %_ZN6icu_7722FormattedStringBuilder16prepareForInsertEiiR10UErrorCode.exit ], [ %33, %35 ], [ %15, %17 ]
  %39 = load i8, ptr %0, align 8, !tbaa !3, !range !11, !noundef !12
  %40 = trunc nuw i8 %39 to i1
  %41 = getelementptr inbounds nuw i8, ptr %0, i64 8
  %42 = load ptr, ptr %41, align 8
  %43 = select i1 %40, ptr %42, ptr %41
  %44 = getelementptr inbounds nuw i8, ptr %0, i64 88
  %45 = load ptr, ptr %44, align 8
  %46 = select i1 %40, ptr %45, ptr %44
  br i1 %6, label %47, label %51

47:                                               ; preds = %_ZN6icu_7722FormattedStringBuilder16prepareForInsertEiiR10UErrorCode.exit.thread
  %48 = trunc nuw i32 %2 to i16
  %49 = sext i32 %.0.i26 to i64
  %50 = getelementptr inbounds i16, ptr %43, i64 %49
  store i16 %48, ptr %50, align 2, !tbaa !14
  br label %_ZN6icu_7722FormattedStringBuilder16prepareForInsertEiiR10UErrorCode.exit.thread27.sink.split

51:                                               ; preds = %_ZN6icu_7722FormattedStringBuilder16prepareForInsertEiiR10UErrorCode.exit.thread
  %52 = lshr i32 %2, 10
  %53 = trunc i32 %52 to i16
  %54 = add i16 %53, -10304
  %55 = sext i32 %.0.i26 to i64
  %56 = getelementptr inbounds i16, ptr %43, i64 %55
  store i16 %54, ptr %56, align 2, !tbaa !14
  %57 = trunc i32 %2 to i16
  %58 = and i16 %57, 1023
  %59 = or disjoint i16 %58, -9216
  %60 = add nsw i32 %.0.i26, 1
  %61 = sext i32 %60 to i64
  %62 = getelementptr inbounds i16, ptr %43, i64 %61
  store i16 %59, ptr %62, align 2, !tbaa !14
  %63 = getelementptr inbounds %"struct.icu_77::FormattedStringBuilder::Field", ptr %46, i64 %61
  store i8 %3, ptr %63, align 1, !tbaa !13
  br label %_ZN6icu_7722FormattedStringBuilder16prepareForInsertEiiR10UErrorCode.exit.thread27.sink.split

_ZN6icu_7722FormattedStringBuilder16prepareForInsertEiiR10UErrorCode.exit.thread27.sink.split: ; preds = %51, %47
  %.sink29 = phi i64 [ %49, %47 ], [ %55, %51 ]
  %64 = getelementptr inbounds %"struct.icu_77::FormattedStringBuilder::Field", ptr %46, i64 %.sink29
  store i8 %3, ptr %64, align 1, !tbaa !13
  br label %_ZN6icu_7722FormattedStringBuilder16prepareForInsertEiiR10UErrorCode.exit.thread27

_ZN6icu_7722FormattedStringBuilder16prepareForInsertEiiR10UErrorCode.exit.thread27: ; preds = %_ZN6icu_7722FormattedStringBuilder16prepareForInsertEiiR10UErrorCode.exit.thread27.sink.split, %5, %_ZN6icu_7722FormattedStringBuilder16prepareForInsertEiiR10UErrorCode.exit
  ret i32 %7
}